target datalayout = "e-m:e-p270:32:32-p271:32:32-p272:64:64-i64:64-i128:128-f80:128-n8:16:32:64-S128"
target triple = "x86_64-pc-linux-gnu"

@bio_err = external global ptr, align 8
@.str.626 = private unnamed_addr constant [26 x i8] c"Unexpected LDAP response\0A\00", align 1
@.str.627 = private unnamed_addr constant [14 x i8] c"No MessageID\0A\00", align 1
@.str.628 = private unnamed_addr constant [22 x i8] c"Not ExtendedResponse\0A\00", align 1
@.str.629 = private unnamed_addr constant [16 x i8] c"Not LDAPResult\0A\00", align 1

; Function Attrs: nounwind uwtable
define internal i32 @ldap_ExtendedResponse_parse(ptr noundef %0, i64 noundef %1) #0 {
  %3 = alloca ptr, align 8
  %4 = alloca i64, align 8
  %5 = alloca ptr, align 8
  %6 = alloca ptr, align 8
  %7 = alloca i64, align 8
  %8 = alloca i32, align 4
  %9 = alloca i32, align 4
  %10 = alloca i32, align 4
  %11 = alloca i32, align 4
  store ptr %0, ptr %3, align 8, !tbaa !29
  store i64 %1, ptr %4, align 8, !tbaa !35
  call void @llvm.lifetime.start.p0(i64 8, ptr %5) #10
  call void @llvm.lifetime.start.p0(i64 8, ptr %6) #10
  call void @llvm.lifetime.start.p0(i64 8, ptr %7) #10
  call void @llvm.lifetime.start.p0(i64 4, ptr %8) #10
  call void @llvm.lifetime.start.p0(i64 4, ptr %9) #10
  call void @llvm.lifetime.start.p0(i64 4, ptr %10) #10
  call void @llvm.lifetime.start.p0(i64 4, ptr %11) #10
  store i32 -1, ptr %11, align 4, !tbaa !4
  %12 = load ptr, ptr %3, align 8, !tbaa !29
  store ptr %12, ptr %5, align 8, !tbaa !29
  %13 = load ptr, ptr %5, align 8, !tbaa !29
  %14 = load i64, ptr %4, align 8, !tbaa !35
  %15 = getelementptr inbounds i8, ptr %13, i64 %14
  store ptr %15, ptr %6, align 8, !tbaa !29
  %16 = load i64, ptr %4, align 8, !tbaa !35
  %17 = call i32 @ASN1_get_object(ptr noundef %5, ptr noundef %7, ptr noundef %8, ptr noundef %9, i64 noundef %16)
  store i32 %17, ptr %10, align 4, !tbaa !4
  %18 = load i32, ptr %10, align 4, !tbaa !4
  %19 = icmp ne i32 %18, 32
  br i1 %19, label %32, label %20

20:                                               ; preds = %2
  %21 = load i32, ptr %8, align 4, !tbaa !4
  %22 = icmp ne i32 %21, 16
  br i1 %22, label %32, label %23

23:                                               ; preds = %20
  %24 = load ptr, ptr %6, align 8, !tbaa !29
  %25 = load ptr, ptr %5, align 8, !tbaa !29
  %26 = ptrtoint ptr %24 to i64
  %27 = ptrtoint ptr %25 to i64
  %28 = sub i64 %26, %27
  store i64 %28, ptr %4, align 8, !tbaa !35
  %29 = load i64, ptr %7, align 8, !tbaa !35
  %30 = load i64, ptr %4, align 8, !tbaa !35
  %31 = icmp sgt i64 %29, %30
  br i1 %31, label %32, label %35

32:                                               ; preds = %23, %20, %2
  %33 = load ptr, ptr @bio_err, align 8, !tbaa !40
  %34 = call i32 (ptr, ptr, ...) @BIO_printf(ptr noundef %33, ptr noundef @.str.626)
  br label %127

35:                                               ; preds = %23
  %36 = load i64, ptr %7, align 8, !tbaa !35
  store i64 %36, ptr %4, align 8, !tbaa !35
  %37 = load i64, ptr %4, align 8, !tbaa !35
  %38 = call i32 @ASN1_get_object(ptr noundef %5, ptr noundef %7, ptr noundef %8, ptr noundef %9, i64 noundef %37)
  store i32 %38, ptr %10, align 4, !tbaa !4
  %39 = load i32, ptr %10, align 4, !tbaa !4
  %40 = icmp ne i32 %39, 0
  br i1 %40, label %53, label %41

41:                                               ; preds = %35
  %42 = load i32, ptr %8, align 4, !tbaa !4
  %43 = icmp ne i32 %42, 2
  br i1 %43, label %53, label %44

44:                                               ; preds = %41
  %45 = load ptr, ptr %6, align 8, !tbaa !29
  %46 = load ptr, ptr %5, align 8, !tbaa !29
  %47 = ptrtoint ptr %45 to i64
  %48 = ptrtoint ptr %46 to i64
  %49 = sub i64 %47, %48
  store i64 %49, ptr %4, align 8, !tbaa !35
  %50 = load i64, ptr %7, align 8, !tbaa !35
  %51 = load i64, ptr %4, align 8, !tbaa !35
  %52 = icmp sgt i64 %50, %51
  br i1 %52, label %53, label %56

53:                                               ; preds = %44, %41, %35
  %54 = load ptr, ptr @bio_err, align 8, !tbaa !40
  %55 = call i32 (ptr, ptr, ...) @BIO_printf(ptr noundef %54, ptr noundef @.str.627)
  br label %127

56:                                               ; preds = %44
  %57 = load i64, ptr %7, align 8, !tbaa !35
  %58 = load ptr, ptr %5, align 8, !tbaa !29
  %59 = getelementptr inbounds i8, ptr %58, i64 %57
  store ptr %59, ptr %5, align 8, !tbaa !29
  %60 = load ptr, ptr %6, align 8, !tbaa !29
  %61 = load ptr, ptr %5, align 8, !tbaa !29
  %62 = ptrtoint ptr %60 to i64
  %63 = ptrtoint ptr %61 to i64
  %64 = sub i64 %62, %63
  store i64 %64, ptr %4, align 8, !tbaa !35
  %65 = load i64, ptr %4, align 8, !tbaa !35
  %66 = call i32 @ASN1_get_object(ptr noundef %5, ptr noundef %7, ptr noundef %8, ptr noundef %9, i64 noundef %65)
  store i32 %66, ptr %10, align 4, !tbaa !4
  %67 = load i32, ptr %10, align 4, !tbaa !4
  %68 = icmp ne i32 %67, 32
  br i1 %68, label %75, label %69

69:                                               ; preds = %56
  %70 = load i32, ptr %9, align 4, !tbaa !4
  %71 = icmp ne i32 %70, 64
  br i1 %71, label %75, label %72

72:                                               ; preds = %69
  %73 = load i32, ptr %8, align 4, !tbaa !4
  %74 = icmp ne i32 %73, 24
  br i1 %74, label %75, label %78

75:                                               ; preds = %72, %69, %56
  %76 = load ptr, ptr @bio_err, align 8, !tbaa !40
  %77 = call i32 (ptr, ptr, ...) @BIO_printf(ptr noundef %76, ptr noundef @.str.628)
  br label %127

78:                                               ; preds = %72
  %79 = load ptr, ptr %6, align 8, !tbaa !29
  %80 = load ptr, ptr %5, align 8, !tbaa !29
  %81 = ptrtoint ptr %79 to i64
  %82 = ptrtoint ptr %80 to i64
  %83 = sub i64 %81, %82
  store i64 %83, ptr %4, align 8, !tbaa !35
  %84 = load i64, ptr %4, align 8, !tbaa !35
  %85 = call i32 @ASN1_get_object(ptr noundef %5, ptr noundef %7, ptr noundef %8, ptr noundef %9, i64 noundef %84)
  store i32 %85, ptr %10, align 4, !tbaa !4
  %86 = load i32, ptr %10, align 4, !tbaa !4
  %87 = icmp ne i32 %86, 0
  br i1 %87, label %103, label %88

88:                                               ; preds = %78
  %89 = load i32, ptr %8, align 4, !tbaa !4
  %90 = icmp ne i32 %89, 10
  br i1 %90, label %103, label %91

91:                                               ; preds = %88
  %92 = load i64, ptr %7, align 8, !tbaa !35
  %93 = icmp eq i64 %92, 0
  br i1 %93, label %103, label %94

94:                                               ; preds = %91
  %95 = load ptr, ptr %6, align 8, !tbaa !29
  %96 = load ptr, ptr %5, align 8, !tbaa !29
  %97 = ptrtoint ptr %95 to i64
  %98 = ptrtoint ptr %96 to i64
  %99 = sub i64 %97, %98
  store i64 %99, ptr %4, align 8, !tbaa !35
  %100 = load i64, ptr %7, align 8, !tbaa !35
  %101 = load i64, ptr %4, align 8, !tbaa !35
  %102 = icmp sgt i64 %100, %101
  br i1 %102, label %103, label %106

103:                                              ; preds = %94, %91, %88, %78
  %104 = load ptr, ptr @bio_err, align 8, !tbaa !40
  %105 = call i32 (ptr, ptr, ...) @BIO_printf(ptr noundef %104, ptr noundef @.str.629)
  br label %127

106:                                              ; preds = %94
  store i32 0, ptr %11, align 4, !tbaa !4
  store i32 0, ptr %10, align 4, !tbaa !4
  br label %107

107:                                              ; preds = %123, %106
  %108 = load i32, ptr %10, align 4, !tbaa !4
  %109 = sext i32 %108 to i64
  %110 = load i64, ptr %7, align 8, !tbaa !35
  %111 = icmp slt i64 %109, %110
  br i1 %111, label %112, label %126

112:                                              ; preds = %107
  %113 = load i32, ptr %11, align 4, !tbaa !4
  %114 = shl i32 %113, 8
  store i32 %114, ptr %11, align 4, !tbaa !4
  %115 = load ptr, ptr %5, align 8, !tbaa !29
  %116 = load i32, ptr %10, align 4, !tbaa !4
  %117 = sext i32 %116 to i64
  %118 = getelementptr inbounds i8, ptr %115, i64 %117
  %119 = load i8, ptr %118, align 1, !tbaa !39
  %120 = zext i8 %119 to i32
  %121 = load i32, ptr %11, align 4, !tbaa !4
  %122 = or i32 %121, %120
  store i32 %122, ptr %11, align 4, !tbaa !4
  br label %123

123:                                              ; preds = %112
  %124 = load i32, ptr %10, align 4, !tbaa !4
  %125 = add nsw i32 %124, 1
  store i32 %125, ptr %10, align 4, !tbaa !4
  br label %107, !llvm.loop !127

126:                                              ; preds = %107
  br label %127

127:                                              ; preds = %126, %103, %75, %53, %32
  %128 = load i32, ptr %11, align 4, !tbaa !4
  call void @llvm.lifetime.end.p0(i64 4, ptr %11) #10
  call void @llvm.lifetime.end.p0(i64 4, ptr %10) #10
  call void @llvm.lifetime.end.p0(i64 4, ptr %9) #10
  call void @llvm.lifetime.end.p0(i64 4, ptr %8) #10
  call void @llvm.lifetime.end.p0(i64 8, ptr %7) #10
  call void @llvm.lifetime.end.p0(i64 8, ptr %6) #10
  call void @llvm.lifetime.end.p0(i64 8, ptr %5) #10
  ret i32 %128
}