; Function Attrs: nounwind uwtable
define internal fastcc i32 @ldap_ExtendedResponse_parse(ptr noundef %0, i64 noundef range(i64 0, 2147483648) %1) unnamed_addr #0 {
  %3 = alloca ptr, align 8
  %4 = alloca i64, align 8
  %5 = alloca i32, align 4
  %6 = alloca i32, align 4
  call void @llvm.lifetime.start.p0(i64 8, ptr nonnull %3) #15
  call void @llvm.lifetime.start.p0(i64 8, ptr nonnull %4) #15
  call void @llvm.lifetime.start.p0(i64 4, ptr nonnull %5) #15
  call void @llvm.lifetime.start.p0(i64 4, ptr nonnull %6) #15
  store ptr %0, ptr %3, align 8, !tbaa !11
  %7 = call i32 @ASN1_get_object(ptr noundef nonnull %3, ptr noundef nonnull %4, ptr noundef nonnull %5, ptr noundef nonnull %6, i64 noundef %1) #15
  %8 = icmp ne i32 %7, 32
  %9 = load i32, ptr %5, align 4
  %10 = icmp ne i32 %9, 16
  %or.cond = select i1 %8, i1 true, i1 %10
  br i1 %or.cond, label %.loopexit.sink.split, label %11

11:                                               ; preds = %2
  %12 = getelementptr inbounds nuw i8, ptr %0, i64 %1
  %13 = load ptr, ptr %3, align 8, !tbaa !11
  %14 = ptrtoint ptr %12 to i64
  %15 = ptrtoint ptr %13 to i64
  %16 = sub i64 %14, %15
  %17 = load i64, ptr %4, align 8, !tbaa !17
  %18 = icmp sgt i64 %17, %16
  br i1 %18, label %.loopexit.sink.split, label %19

19:                                               ; preds = %11
  %20 = call i32 @ASN1_get_object(ptr noundef nonnull %3, ptr noundef nonnull %4, ptr noundef nonnull %5, ptr noundef nonnull %6, i64 noundef %17) #15
  %21 = icmp ne i32 %20, 0
  %22 = load i32, ptr %5, align 4
  %23 = icmp ne i32 %22, 2
  %or.cond3 = select i1 %21, i1 true, i1 %23
  br i1 %or.cond3, label %.loopexit.sink.split, label %24

24:                                               ; preds = %19
  %25 = load ptr, ptr %3, align 8, !tbaa !11
  %26 = ptrtoint ptr %25 to i64
  %27 = sub i64 %14, %26
  %28 = load i64, ptr %4, align 8, !tbaa !17
  %29 = icmp sgt i64 %28, %27
  br i1 %29, label %.loopexit.sink.split, label %30

30:                                               ; preds = %24
  %31 = getelementptr inbounds i8, ptr %25, i64 %28
  store ptr %31, ptr %3, align 8, !tbaa !11
  %32 = ptrtoint ptr %31 to i64
  %33 = sub i64 %14, %32
  %34 = call i32 @ASN1_get_object(ptr noundef nonnull %3, ptr noundef nonnull %4, ptr noundef nonnull %5, ptr noundef nonnull %6, i64 noundef %33) #15
  %35 = icmp ne i32 %34, 32
  %36 = load i32, ptr %6, align 4
  %37 = icmp ne i32 %36, 64
  %or.cond5 = select i1 %35, i1 true, i1 %37
  %38 = load i32, ptr %5, align 4
  %39 = icmp ne i32 %38, 24
  %or.cond7 = select i1 %or.cond5, i1 true, i1 %39
  br i1 %or.cond7, label %.loopexit.sink.split, label %40

40:                                               ; preds = %30
  %41 = load ptr, ptr %3, align 8, !tbaa !11
  %42 = ptrtoint ptr %41 to i64
  %43 = sub i64 %14, %42
  %44 = call i32 @ASN1_get_object(ptr noundef nonnull %3, ptr noundef nonnull %4, ptr noundef nonnull %5, ptr noundef nonnull %6, i64 noundef %43) #15
  %45 = icmp ne i32 %44, 0
  %46 = load i32, ptr %5, align 4
  %47 = icmp ne i32 %46, 10
  %or.cond9 = select i1 %45, i1 true, i1 %47
  %48 = load i64, ptr %4, align 8
  %49 = icmp eq i64 %48, 0
  %or.cond11 = select i1 %or.cond9, i1 true, i1 %49
  br i1 %or.cond11, label %.loopexit.sink.split, label %50

50:                                               ; preds = %40
  %51 = load ptr, ptr %3, align 8, !tbaa !11
  %52 = ptrtoint ptr %51 to i64
  %53 = sub i64 %14, %52
  %54 = icmp sgt i64 %48, %53
  br i1 %54, label %.loopexit.sink.split, label %.preheader

.preheader:                                       ; preds = %50
  %55 = icmp sgt i64 %48, 0
  br i1 %55, label %.lr.ph, label %.loopexit

.lr.ph:                                           ; preds = %.preheader, %.lr.ph
  %indvars.iv = phi i64 [ %indvars.iv.next, %.lr.ph ], [ 0, %.preheader ]
  %.140 = phi i32 [ %60, %.lr.ph ], [ 0, %.preheader ]
  %56 = shl i32 %.140, 8
  %57 = getelementptr inbounds nuw i8, ptr %51, i64 %indvars.iv
  %58 = load i8, ptr %57, align 1, !tbaa !25
  %59 = zext i8 %58 to i32
  %60 = or disjoint i32 %56, %59
  %indvars.iv.next = add nuw nsw i64 %indvars.iv, 1
  %exitcond.not = icmp eq i64 %indvars.iv.next, %48
  br i1 %exitcond.not, label %.loopexit, label %.lr.ph, !llvm.loop !85

.loopexit.sink.split:                             ; preds = %40, %50, %30, %19, %24, %2, %11
  %.str.629.sink = phi ptr [ @.str.626, %11 ], [ @.str.626, %2 ], [ @.str.627, %24 ], [ @.str.627, %19 ], [ @.str.628, %30 ], [ @.str.629, %50 ], [ @.str.629, %40 ]
  %61 = load ptr, ptr @bio_err, align 8, !tbaa !19
  %62 = call i32 (ptr, ptr, ...) @BIO_printf(ptr noundef %61, ptr noundef nonnull %.str.629.sink) #15
  br label %.loopexit

.loopexit:                                        ; preds = %.lr.ph, %.loopexit.sink.split, %.preheader
  %.0 = phi i32 [ 0, %.preheader ], [ -1, %.loopexit.sink.split ], [ %60, %.lr.ph ]
  call void @llvm.lifetime.end.p0(i64 4, ptr nonnull %6) #15
  call void @llvm.lifetime.end.p0(i64 4, ptr nonnull %5) #15
  call void @llvm.lifetime.end.p0(i64 8, ptr nonnull %4) #15
  call void @llvm.lifetime.end.p0(i64 8, ptr nonnull %3) #15
  ret i32 %.0
}